target datalayout = "e-m:e-p270:32:32-p271:32:32-p272:64:64-i64:64-i128:128-f80:128-n8:16:32:64-S128"
target triple = "x86_64-pc-linux-gnu"

%"class.icu_77::RelativeDateFormat" = type { %"class.icu_77::DateFormat", ptr, %"class.icu_77::UnicodeString", %"class.icu_77::UnicodeString", ptr, i32, [4 x i8], %"class.icu_77::Locale", i32, ptr, i8, i8, i8, i8, ptr }
%"class.icu_77::DateFormat" = type { %"class.icu_77::Format", ptr, ptr, %"class.icu_77::EnumSet", i32 }
%"class.icu_77::Format" = type { %"class.icu_77::UObject", ptr, ptr }
%"class.icu_77::UObject" = type { ptr }
%"class.icu_77::EnumSet" = type { i32 }
%"class.icu_77::UnicodeString" = type { %"class.icu_77::Replaceable", %"union.icu_77::UnicodeString::StackBufferOrFields" }
%"class.icu_77::Replaceable" = type { %"class.icu_77::UObject" }
%"union.icu_77::UnicodeString::StackBufferOrFields" = type { %struct.anon.0, [32 x i8] }
%struct.anon.0 = type { i16, i32, i32, ptr }
%"class.icu_77::Locale" = type <{ %"class.icu_77::UObject", [12 x i8], [6 x i8], [4 x i8], [2 x i8], i32, [4 x i8], ptr, [157 x i8], [3 x i8], ptr, i8, [7 x i8] }>

; Function Attrs: inlinehint mustprogress nounwind uwtable
define internal noundef signext i8 @_ZL9U_FAILURE10UErrorCode(i32 noundef %0) #7 {
  %2 = alloca i32, align 4
  store i32 %0, ptr %2, align 4, !tbaa !44
  %3 = load i32, ptr %2, align 4, !tbaa !44
  %4 = icmp sgt i32 %3, 0
  %5 = zext i1 %4 to i8
  ret i8 %5
}

; Function Attrs: inlinehint mustprogress nounwind uwtable
define internal noundef signext i8 @_ZL9U_SUCCESS10UErrorCode(i32 noundef %0) #7 {
  %2 = alloca i32, align 4
  store i32 %0, ptr %2, align 4, !tbaa !44
  %3 = load i32, ptr %2, align 4, !tbaa !44
  %4 = icmp sle i32 %3, 0
  %5 = zext i1 %4 to i8
  ret i8 %5
}

; Function Attrs: mustprogress uwtable
define void @_ZN6icu_7718RelativeDateFormat10setContextE15UDisplayContextR10UErrorCode(ptr noundef nonnull align 8 dereferenceable(456) %0, i32 noundef %1, ptr noundef nonnull align 4 dereferenceable(4) %2) unnamed_addr #1 align 2 {
  %4 = alloca ptr, align 8
  %5 = alloca i32, align 4
  %6 = alloca ptr, align 8
  store ptr %0, ptr %4, align 8, !tbaa !3
  store i32 %1, ptr %5, align 4, !tbaa !65
  store ptr %2, ptr %6, align 8, !tbaa !43
  %7 = load ptr, ptr %4, align 8
  %8 = load i32, ptr %5, align 4, !tbaa !65
  %9 = load ptr, ptr %6, align 8, !tbaa !43
  call void @_ZN6icu_7710DateFormat10setContextE15UDisplayContextR10UErrorCode(ptr noundef nonnull align 8 dereferenceable(48) %7, i32 noundef %8, ptr noundef nonnull align 4 dereferenceable(4) %9)
  %10 = load ptr, ptr %6, align 8, !tbaa !43
  %11 = load i32, ptr %10, align 4, !tbaa !44
  %12 = call noundef signext i8 @_ZL9U_SUCCESS10UErrorCode(i32 noundef %11)
  %13 = icmp ne i8 %12, 0
  br i1 %13, label %14, label %70

14:                                               ; preds = %3
  %15 = getelementptr inbounds nuw %"class.icu_77::RelativeDateFormat", ptr %7, i32 0, i32 11
  %16 = load i8, ptr %15, align 1, !tbaa !35
  %17 = icmp ne i8 %16, 0
  br i1 %17, label %27, label %18

18:                                               ; preds = %14
  %19 = load i32, ptr %5, align 4, !tbaa !65
  %20 = icmp eq i32 %19, 259
  br i1 %20, label %24, label %21

21:                                               ; preds = %18
  %22 = load i32, ptr %5, align 4, !tbaa !65
  %23 = icmp eq i32 %22, 260
  br i1 %23, label %24, label %27

24:                                               ; preds = %21, %18
  %25 = getelementptr inbounds nuw %"class.icu_77::RelativeDateFormat", ptr %7, i32 0, i32 7
  call void @_ZN6icu_7718RelativeDateFormat29initCapitalizationContextInfoERKNS_6LocaleE(ptr noundef nonnull align 8 dereferenceable(456) %7, ptr noundef nonnull align 8 dereferenceable(217) %25)
  %26 = getelementptr inbounds nuw %"class.icu_77::RelativeDateFormat", ptr %7, i32 0, i32 11
  store i8 1, ptr %26, align 1, !tbaa !35
  br label %27

27:                                               ; preds = %24, %21, %14
  %28 = getelementptr inbounds nuw %"class.icu_77::RelativeDateFormat", ptr %7, i32 0, i32 14
  %29 = load ptr, ptr %28, align 8, !tbaa !38
  %30 = icmp eq ptr %29, null
  br i1 %30, label %31, label %69

31:                                               ; preds = %27
  %32 = load i32, ptr %5, align 4, !tbaa !65
  %33 = icmp eq i32 %32, 258
  br i1 %33, label %48, label %34

34:                                               ; preds = %31
  %35 = load i32, ptr %5, align 4, !tbaa !65
  %36 = icmp eq i32 %35, 259
  br i1 %36, label %37, label %41

37:                                               ; preds = %34
  %38 = getelementptr inbounds nuw %"class.icu_77::RelativeDateFormat", ptr %7, i32 0, i32 12
  %39 = load i8, ptr %38, align 2, !tbaa !36
  %40 = icmp ne i8 %39, 0
  br i1 %40, label %48, label %41

41:                                               ; preds = %37, %34
  %42 = load i32, ptr %5, align 4, !tbaa !65
  %43 = icmp eq i32 %42, 260
  br i1 %43, label %44, label %69

44:                                               ; preds = %41
  %45 = getelementptr inbounds nuw %"class.icu_77::RelativeDateFormat", ptr %7, i32 0, i32 13
  %46 = load i8, ptr %45, align 1, !tbaa !37
  %47 = icmp ne i8 %46, 0
  br i1 %47, label %48, label %69

48:                                               ; preds = %44, %37, %31
  %49 = load ptr, ptr %6, align 8, !tbaa !43
  store i32 0, ptr %49, align 4, !tbaa !44
  %50 = getelementptr inbounds nuw %"class.icu_77::RelativeDateFormat", ptr %7, i32 0, i32 7
  %51 = load ptr, ptr %6, align 8, !tbaa !43
  %52 = call noundef ptr @_ZN6icu_7713BreakIterator22createSentenceInstanceERKNS_6LocaleER10UErrorCode(ptr noundef nonnull align 8 dereferenceable(217) %50, ptr noundef nonnull align 4 dereferenceable(4) %51)
  %53 = getelementptr inbounds nuw %"class.icu_77::RelativeDateFormat", ptr %7, i32 0, i32 14
  store ptr %52, ptr %53, align 8, !tbaa !38
  %54 = load ptr, ptr %6, align 8, !tbaa !43
  %55 = load i32, ptr %54, align 4, !tbaa !44
  %56 = call noundef signext i8 @_ZL9U_FAILURE10UErrorCode(i32 noundef %55)
  %57 = icmp ne i8 %56, 0
  br i1 %57, label %58, label %68

58:                                               ; preds = %48
  %59 = getelementptr inbounds nuw %"class.icu_77::RelativeDateFormat", ptr %7, i32 0, i32 14
  %60 = load ptr, ptr %59, align 8, !tbaa !38
  %61 = icmp eq ptr %60, null
  br i1 %61, label %66, label %62

62:                                               ; preds = %58
  %63 = load ptr, ptr %60, align 8, !tbaa !8
  %64 = getelementptr inbounds ptr, ptr %63, i64 1
  %65 = load ptr, ptr %64, align 8
  call void %65(ptr noundef nonnull align 8 dereferenceable(32) %60) #13
  br label %66

66:                                               ; preds = %62, %58
  %67 = getelementptr inbounds nuw %"class.icu_77::RelativeDateFormat", ptr %7, i32 0, i32 14
  store ptr null, ptr %67, align 8, !tbaa !38
  br label %68

68:                                               ; preds = %66, %48
  br label %69

69:                                               ; preds = %68, %44, %41, %27
  br label %70

70:                                               ; preds = %69, %3
  ret void
}