; Function Attrs: mustprogress uwtable
define void @_ZN6icu_7718RelativeDateFormat10setContextE15UDisplayContextR10UErrorCode(ptr noundef nonnull align 8 dereferenceable(456) %0, i32 noundef %1, ptr noundef nonnull align 4 dereferenceable(4) %2) unnamed_addr #1 align 2 {
  tail call void @_ZN6icu_7710DateFormat10setContextE15UDisplayContextR10UErrorCode(ptr noundef nonnull align 8 dereferenceable(48) %0, i32 noundef %1, ptr noundef nonnull align 4 dereferenceable(4) %2)
  %4 = load i32, ptr %2, align 4, !tbaa !38
  %5 = icmp sgt i32 %4, 0
  br i1 %5, label %33, label %6

6:                                                ; preds = %3
  %7 = getelementptr inbounds nuw i8, ptr %0, i64 441
  %8 = load i8, ptr %7, align 1, !tbaa !33
  %.not13 = icmp eq i8 %8, 0
  %9 = add i32 %1, -259
  %or.cond = icmp ult i32 %9, 2
  %or.cond17 = and i1 %or.cond, %.not13
  br i1 %or.cond17, label %10, label %12

10:                                               ; preds = %6
  %11 = getelementptr inbounds nuw i8, ptr %0, i64 200
  tail call void @_ZN6icu_7718RelativeDateFormat29initCapitalizationContextInfoERKNS_6LocaleE(ptr noundef nonnull align 8 dereferenceable(456) %0, ptr noundef nonnull align 8 dereferenceable(217) %11)
  store i8 1, ptr %7, align 1, !tbaa !33
  br label %12

12:                                               ; preds = %10, %6
  %13 = getelementptr inbounds nuw i8, ptr %0, i64 448
  %14 = load ptr, ptr %13, align 8, !tbaa !36
  %15 = icmp eq ptr %14, null
  br i1 %15, label %16, label %33

16:                                               ; preds = %12
  switch i32 %1, label %33 [
    i32 258, label %21
    i32 259, label %17
    i32 260, label %20
  ]

17:                                               ; preds = %16
  %18 = getelementptr inbounds nuw i8, ptr %0, i64 442
  %19 = load i8, ptr %18, align 2, !tbaa !34
  %.not14 = icmp eq i8 %19, 0
  br i1 %.not14, label %33, label %21

20:                                               ; preds = %16
  %.old = getelementptr inbounds nuw i8, ptr %0, i64 443
  %.old18 = load i8, ptr %.old, align 1, !tbaa !35
  %.not15.old = icmp eq i8 %.old18, 0
  br i1 %.not15.old, label %33, label %21

21:                                               ; preds = %16, %20, %17
  store i32 0, ptr %2, align 4, !tbaa !38
  %22 = getelementptr inbounds nuw i8, ptr %0, i64 200
  %23 = tail call noundef ptr @_ZN6icu_7713BreakIterator22createSentenceInstanceERKNS_6LocaleER10UErrorCode(ptr noundef nonnull align 8 dereferenceable(217) %22, ptr noundef nonnull align 4 dereferenceable(4) %2)
  store ptr %23, ptr %13, align 8, !tbaa !36
  %24 = load i32, ptr %2, align 4, !tbaa !38
  %25 = icmp slt i32 %24, 1
  br i1 %25, label %33, label %26

26:                                               ; preds = %21
  %27 = icmp eq ptr %23, null
  br i1 %27, label %32, label %28

28:                                               ; preds = %26
  %29 = load ptr, ptr %23, align 8, !tbaa !3
  %30 = getelementptr inbounds nuw i8, ptr %29, i64 8
  %31 = load ptr, ptr %30, align 8
  tail call void %31(ptr noundef nonnull align 8 dereferenceable(32) %23) #15
  br label %32

32:                                               ; preds = %28, %26
  store ptr null, ptr %13, align 8, !tbaa !36
  br label %33

33:                                               ; preds = %17, %16, %12, %20, %32, %21, %3
  ret void
}